target datalayout = "e-m:e-p270:32:32-p271:32:32-p272:64:64-i64:64-i128:128-f80:128-n8:16:32:64-S128"
target triple = "x86_64-pc-linux-gnu"

%struct.Gia_Man_t_ = type { ptr, ptr, i32, i32, i32, i32, ptr, ptr, i32, i32, i32, ptr, ptr, %struct.Vec_Int_t_, %struct.Vec_Int_t_, i32, i32, i32, %struct.Vec_Int_t_, ptr, ptr, ptr, i32, i32, i32, i32, ptr, ptr, ptr, ptr, ptr, i32, i32, ptr, i32, ptr, ptr, ptr, ptr, ptr, ptr, ptr, ptr, ptr, ptr, ptr, ptr, ptr, ptr, ptr, ptr, ptr, ptr, %struct.Vec_Int_t_, %struct.Vec_Int_t_, ptr, ptr, ptr, ptr, ptr, ptr, ptr, ptr, ptr, ptr, ptr, ptr, ptr, ptr, ptr, ptr, ptr, ptr, ptr, ptr, ptr, i32, float, float, ptr, ptr, i32, ptr, ptr, ptr, ptr, ptr, ptr, ptr, ptr, ptr, ptr, ptr, ptr, ptr, ptr, ptr, i64, i64, ptr, ptr, i32, i32, i32, i32, i32, i32, i32, i32, i32, i32, i32, i32, ptr, ptr, ptr, ptr, ptr, ptr, ptr, ptr, i32, i32, i32, ptr, i32, i32, ptr, ptr, ptr, ptr, ptr, ptr, i32, i32, ptr, %struct.Vec_Int_t_, %struct.Vec_Int_t_, %struct.Vec_Int_t_, ptr, ptr, ptr, i32, i32, i32, i32, ptr, ptr, ptr, ptr, ptr }
%struct.Vec_Int_t_ = type { i32, i32, ptr }
%struct.Gia_Obj_t_ = type <{ i64, i32 }>

; Function Attrs: inlinehint nounwind uwtable
define internal ptr @Gia_ObjFanin1(ptr noundef %0) #3 {
  %2 = alloca ptr, align 8
  store ptr %0, ptr %2, align 8, !tbaa !8
  %3 = load ptr, ptr %2, align 8, !tbaa !8
  %4 = load ptr, ptr %2, align 8, !tbaa !8
  %5 = load i64, ptr %4, align 4
  %6 = lshr i64 %5, 32
  %7 = and i64 %6, 536870911
  %8 = trunc i64 %7 to i32
  %9 = sext i32 %8 to i64
  %10 = sub i64 0, %9
  %11 = getelementptr inbounds %struct.Gia_Obj_t_, ptr %3, i64 %10
  ret ptr %11
}

; Function Attrs: inlinehint nounwind uwtable
define internal i32 @Gia_ObjId(ptr noundef %0, ptr noundef %1) #3 {
  %3 = alloca ptr, align 8
  %4 = alloca ptr, align 8
  store ptr %0, ptr %3, align 8, !tbaa !3
  store ptr %1, ptr %4, align 8, !tbaa !8
  %5 = load ptr, ptr %4, align 8, !tbaa !8
  %6 = load ptr, ptr %3, align 8, !tbaa !3
  %7 = getelementptr inbounds nuw %struct.Gia_Man_t_, ptr %6, i32 0, i32 6
  %8 = load ptr, ptr %7, align 8, !tbaa !14
  %9 = ptrtoint ptr %5 to i64
  %10 = ptrtoint ptr %8 to i64
  %11 = sub i64 %9, %10
  %12 = sdiv exact i64 %11, 12
  %13 = trunc i64 %12 to i32
  ret i32 %13
}

; Function Attrs: inlinehint nounwind uwtable
define internal ptr @Gia_Regular(ptr noundef %0) #3 {
  %2 = alloca ptr, align 8
  store ptr %0, ptr %2, align 8, !tbaa !8
  %3 = load ptr, ptr %2, align 8, !tbaa !8
  %4 = ptrtoint ptr %3 to i64
  %5 = and i64 %4, -2
  %6 = inttoptr i64 %5 to ptr
  ret ptr %6
}

; Function Attrs: inlinehint nounwind uwtable
define internal ptr @Gia_ObjFanin0(ptr noundef %0) #3 {
  %2 = alloca ptr, align 8
  store ptr %0, ptr %2, align 8, !tbaa !8
  %3 = load ptr, ptr %2, align 8, !tbaa !8
  %4 = load ptr, ptr %2, align 8, !tbaa !8
  %5 = load i64, ptr %4, align 4
  %6 = and i64 %5, 536870911
  %7 = trunc i64 %6 to i32
  %8 = sext i32 %7 to i64
  %9 = sub i64 0, %8
  %10 = getelementptr inbounds %struct.Gia_Obj_t_, ptr %3, i64 %9
  ret ptr %10
}

; Function Attrs: inlinehint nounwind uwtable
define internal i32 @Gia_ObjIsAnd(ptr noundef %0) #3 {
  %2 = alloca ptr, align 8
  store ptr %0, ptr %2, align 8, !tbaa !8
  %3 = load ptr, ptr %2, align 8, !tbaa !8
  %4 = load i64, ptr %3, align 4
  %5 = lshr i64 %4, 31
  %6 = and i64 %5, 1
  %7 = trunc i64 %6 to i32
  %8 = icmp ne i32 %7, 0
  br i1 %8, label %15, label %9

9:                                                ; preds = %1
  %10 = load ptr, ptr %2, align 8, !tbaa !8
  %11 = load i64, ptr %10, align 4
  %12 = and i64 %11, 536870911
  %13 = trunc i64 %12 to i32
  %14 = icmp ne i32 %13, 536870911
  br label %15

15:                                               ; preds = %9, %1
  %16 = phi i1 [ false, %1 ], [ %14, %9 ]
  %17 = zext i1 %16 to i32
  ret i32 %17
}

; Function Attrs: nounwind uwtable
define i32 @Acec_DetectBoothTwoXor(ptr noundef %0, ptr noundef %1, ptr noundef %2) #0 {
  %4 = alloca i32, align 4
  %5 = alloca ptr, align 8
  %6 = alloca ptr, align 8
  %7 = alloca ptr, align 8
  %8 = alloca ptr, align 8
  %9 = alloca ptr, align 8
  %10 = alloca i32, align 4
  store ptr %0, ptr %5, align 8, !tbaa !3
  store ptr %1, ptr %6, align 8, !tbaa !8
  store ptr %2, ptr %7, align 8, !tbaa !10
  call void @llvm.lifetime.start.p0(i64 8, ptr %8) #8
  call void @llvm.lifetime.start.p0(i64 8, ptr %9) #8
  %11 = load ptr, ptr %6, align 8, !tbaa !8
  %12 = call i32 @Gia_ObjIsAnd(ptr noundef %11)
  %13 = icmp ne i32 %12, 0
  br i1 %13, label %15, label %14

14:                                               ; preds = %3
  store i32 0, ptr %4, align 4
  store i32 1, ptr %10, align 4
  br label %72

15:                                               ; preds = %3
  %16 = load ptr, ptr %6, align 8, !tbaa !8
  %17 = call ptr @Gia_ObjFanin0(ptr noundef %16)
  %18 = call i32 @Gia_ObjRecognizeExor(ptr noundef %17, ptr noundef %8, ptr noundef %9)
  %19 = icmp ne i32 %18, 0
  br i1 %19, label %20, label %43

20:                                               ; preds = %15
  %21 = load ptr, ptr %5, align 8, !tbaa !3
  %22 = load ptr, ptr %8, align 8, !tbaa !8
  %23 = call ptr @Gia_Regular(ptr noundef %22)
  %24 = call i32 @Gia_ObjId(ptr noundef %21, ptr noundef %23)
  %25 = load ptr, ptr %7, align 8, !tbaa !10
  %26 = getelementptr inbounds i32, ptr %25, i64 0
  store i32 %24, ptr %26, align 4, !tbaa !12
  %27 = load ptr, ptr %5, align 8, !tbaa !3
  %28 = load ptr, ptr %9, align 8, !tbaa !8
  %29 = call ptr @Gia_Regular(ptr noundef %28)
  %30 = call i32 @Gia_ObjId(ptr noundef %27, ptr noundef %29)
  %31 = load ptr, ptr %7, align 8, !tbaa !10
  %32 = getelementptr inbounds i32, ptr %31, i64 1
  store i32 %30, ptr %32, align 4, !tbaa !12
  %33 = load ptr, ptr %7, align 8, !tbaa !10
  %34 = getelementptr inbounds i32, ptr %33, i64 2
  store i32 -1, ptr %34, align 4, !tbaa !12
  %35 = load ptr, ptr %7, align 8, !tbaa !10
  %36 = getelementptr inbounds i32, ptr %35, i64 3
  store i32 0, ptr %36, align 4, !tbaa !12
  %37 = load ptr, ptr %5, align 8, !tbaa !3
  %38 = load ptr, ptr %6, align 8, !tbaa !8
  %39 = call ptr @Gia_ObjFanin1(ptr noundef %38)
  %40 = call i32 @Gia_ObjId(ptr noundef %37, ptr noundef %39)
  %41 = load ptr, ptr %7, align 8, !tbaa !10
  %42 = getelementptr inbounds i32, ptr %41, i64 4
  store i32 %40, ptr %42, align 4, !tbaa !12
  store i32 1, ptr %4, align 4
  store i32 1, ptr %10, align 4
  br label %72

43:                                               ; preds = %15
  %44 = load ptr, ptr %6, align 8, !tbaa !8
  %45 = call ptr @Gia_ObjFanin1(ptr noundef %44)
  %46 = call i32 @Gia_ObjRecognizeExor(ptr noundef %45, ptr noundef %8, ptr noundef %9)
  %47 = icmp ne i32 %46, 0
  br i1 %47, label %48, label %71

48:                                               ; preds = %43
  %49 = load ptr, ptr %5, align 8, !tbaa !3
  %50 = load ptr, ptr %8, align 8, !tbaa !8
  %51 = call ptr @Gia_Regular(ptr noundef %50)
  %52 = call i32 @Gia_ObjId(ptr noundef %49, ptr noundef %51)
  %53 = load ptr, ptr %7, align 8, !tbaa !10
  %54 = getelementptr inbounds i32, ptr %53, i64 0
  store i32 %52, ptr %54, align 4, !tbaa !12
  %55 = load ptr, ptr %5, align 8, !tbaa !3
  %56 = load ptr, ptr %9, align 8, !tbaa !8
  %57 = call ptr @Gia_Regular(ptr noundef %56)
  %58 = call i32 @Gia_ObjId(ptr noundef %55, ptr noundef %57)
  %59 = load ptr, ptr %7, align 8, !tbaa !10
  %60 = getelementptr inbounds i32, ptr %59, i64 1
  store i32 %58, ptr %60, align 4, !tbaa !12
  %61 = load ptr, ptr %7, align 8, !tbaa !10
  %62 = getelementptr inbounds i32, ptr %61, i64 2
  store i32 -1, ptr %62, align 4, !tbaa !12
  %63 = load ptr, ptr %7, align 8, !tbaa !10
  %64 = getelementptr inbounds i32, ptr %63, i64 3
  store i32 0, ptr %64, align 4, !tbaa !12
  %65 = load ptr, ptr %5, align 8, !tbaa !3
  %66 = load ptr, ptr %6, align 8, !tbaa !8
  %67 = call ptr @Gia_ObjFanin0(ptr noundef %66)
  %68 = call i32 @Gia_ObjId(ptr noundef %65, ptr noundef %67)
  %69 = load ptr, ptr %7, align 8, !tbaa !10
  %70 = getelementptr inbounds i32, ptr %69, i64 4
  store i32 %68, ptr %70, align 4, !tbaa !12
  store i32 1, ptr %4, align 4
  store i32 1, ptr %10, align 4
  br label %72

71:                                               ; preds = %43
  store i32 0, ptr %4, align 4
  store i32 1, ptr %10, align 4
  br label %72

72:                                               ; preds = %71, %48, %20, %14
  call void @llvm.lifetime.end.p0(i64 8, ptr %9) #8
  call void @llvm.lifetime.end.p0(i64 8, ptr %8) #8
  %73 = load i32, ptr %4, align 4
  ret i32 %73
}