; Function Attrs: nounwind uwtable
define range(i32 0, 2) i32 @Acec_DetectBoothTwoXor(ptr noundef readonly captures(none) %0, ptr noundef %1, ptr noundef writeonly captures(none) %2) local_unnamed_addr #0 {
  %4 = alloca ptr, align 8
  %5 = alloca ptr, align 8
  call void @llvm.lifetime.start.p0(i64 8, ptr nonnull %4) #10
  call void @llvm.lifetime.start.p0(i64 8, ptr nonnull %5) #10
  %.val28 = load i64, ptr %1, align 4
  %6 = and i64 %.val28, 2147483648
  %.not.i = icmp ne i64 %6, 0
  %7 = and i64 %.val28, 536870911
  %8 = icmp eq i64 %7, 536870911
  %narrow.i.not = or i1 %.not.i, %8
  br i1 %narrow.i.not, label %67, label %9

9:                                                ; preds = %3
  %10 = sub nsw i64 0, %7
  %11 = getelementptr inbounds %struct.Gia_Obj_t_, ptr %1, i64 %10
  %12 = call i32 @Gia_ObjRecognizeExor(ptr noundef nonnull %11, ptr noundef nonnull %4, ptr noundef nonnull %5) #10
  %.not21 = icmp eq i32 %12, 0
  br i1 %.not21, label %33, label %13

13:                                               ; preds = %9
  %14 = load ptr, ptr %4, align 8, !tbaa !3
  %15 = ptrtoint ptr %14 to i64
  %16 = and i64 %15, -2
  %17 = getelementptr i8, ptr %0, i64 32
  %.val27 = load ptr, ptr %17, align 8, !tbaa !8
  %18 = ptrtoint ptr %.val27 to i64
  %19 = sub i64 %16, %18
  %20 = sdiv exact i64 %19, 12
  %21 = trunc i64 %20 to i32
  store i32 %21, ptr %2, align 4, !tbaa !29
  %22 = load ptr, ptr %5, align 8, !tbaa !3
  %23 = ptrtoint ptr %22 to i64
  %24 = and i64 %23, -2
  %25 = sub i64 %24, %18
  %26 = sdiv exact i64 %25, 12
  %27 = trunc i64 %26 to i32
  %28 = getelementptr inbounds nuw i8, ptr %2, i64 4
  store i32 %27, ptr %28, align 4, !tbaa !29
  %29 = getelementptr inbounds nuw i8, ptr %2, i64 8
  store i32 -1, ptr %29, align 4, !tbaa !29
  %30 = getelementptr inbounds nuw i8, ptr %2, i64 12
  store i32 0, ptr %30, align 4, !tbaa !29
  %31 = load i64, ptr %1, align 4
  %32 = lshr i64 %31, 32
  br label %.sink.split

33:                                               ; preds = %9
  %34 = load i64, ptr %1, align 4
  %35 = lshr i64 %34, 32
  %36 = and i64 %35, 536870911
  %37 = sub nsw i64 0, %36
  %38 = getelementptr inbounds %struct.Gia_Obj_t_, ptr %1, i64 %37
  %39 = call i32 @Gia_ObjRecognizeExor(ptr noundef nonnull %38, ptr noundef nonnull %4, ptr noundef nonnull %5) #10
  %.not22 = icmp eq i32 %39, 0
  br i1 %.not22, label %67, label %40

40:                                               ; preds = %33
  %41 = load ptr, ptr %4, align 8, !tbaa !3
  %42 = ptrtoint ptr %41 to i64
  %43 = and i64 %42, -2
  %44 = getelementptr i8, ptr %0, i64 32
  %.val24 = load ptr, ptr %44, align 8, !tbaa !8
  %45 = ptrtoint ptr %.val24 to i64
  %46 = sub i64 %43, %45
  %47 = sdiv exact i64 %46, 12
  %48 = trunc i64 %47 to i32
  store i32 %48, ptr %2, align 4, !tbaa !29
  %49 = load ptr, ptr %5, align 8, !tbaa !3
  %50 = ptrtoint ptr %49 to i64
  %51 = and i64 %50, -2
  %52 = sub i64 %51, %45
  %53 = sdiv exact i64 %52, 12
  %54 = trunc i64 %53 to i32
  %55 = getelementptr inbounds nuw i8, ptr %2, i64 4
  store i32 %54, ptr %55, align 4, !tbaa !29
  %56 = getelementptr inbounds nuw i8, ptr %2, i64 8
  store i32 -1, ptr %56, align 4, !tbaa !29
  %57 = getelementptr inbounds nuw i8, ptr %2, i64 12
  store i32 0, ptr %57, align 4, !tbaa !29
  %58 = load i64, ptr %1, align 4
  br label %.sink.split

.sink.split:                                      ; preds = %13, %40
  %.sink35 = phi i64 [ %58, %40 ], [ %32, %13 ]
  %.sink33 = phi i64 [ %45, %40 ], [ %18, %13 ]
  %59 = and i64 %.sink35, 536870911
  %60 = sub nsw i64 0, %59
  %61 = getelementptr inbounds %struct.Gia_Obj_t_, ptr %1, i64 %60
  %62 = ptrtoint ptr %61 to i64
  %63 = sub i64 %62, %.sink33
  %64 = sdiv exact i64 %63, 12
  %65 = trunc i64 %64 to i32
  %66 = getelementptr inbounds nuw i8, ptr %2, i64 16
  store i32 %65, ptr %66, align 4, !tbaa !29
  br label %67

67:                                               ; preds = %.sink.split, %33, %3
  %.0 = phi i32 [ 0, %3 ], [ 0, %33 ], [ 1, %.sink.split ]
  call void @llvm.lifetime.end.p0(i64 8, ptr nonnull %5) #10
  call void @llvm.lifetime.end.p0(i64 8, ptr nonnull %4) #10
  ret i32 %.0
}